target datalayout = "e-m:e-p270:32:32-p271:32:32-p272:64:64-i64:64-i128:128-f80:128-n8:16:32:64-S128"
target triple = "x86_64-pc-linux-gnu"

%struct.Wln_Ret_t_ = type { ptr, %struct.Vec_Int_t_, %struct.Vec_Int_t_, %struct.Vec_Int_t_, %struct.Vec_Int_t_, %struct.Vec_Int_t_, %struct.Vec_Int_t_, %struct.Vec_Int_t_, %struct.Vec_Int_t_, %struct.Vec_Int_t_, %struct.Vec_Int_t_, i32, i32 }
%struct.Vec_Int_t_ = type { i32, i32, ptr }
%struct.Wln_Ntk_t_ = type { ptr, ptr, i32, %struct.Vec_Int_t_, %struct.Vec_Int_t_, %struct.Vec_Int_t_, %struct.Vec_Int_t_, ptr, %struct.Vec_Int_t_, ptr, %struct.Vec_Int_t_, %struct.Vec_Int_t_, ptr, %struct.Vec_Str_t_, i32, %struct.Vec_Int_t_, %struct.Vec_Int_t_, %struct.Vec_Int_t_, %struct.Vec_Int_t_, %struct.Vec_Int_t_, %struct.Vec_Int_t_, %struct.Vec_Int_t_, %struct.Vec_Int_t_, ptr, [99 x i32], [99 x i32] }
%struct.Vec_Str_t_ = type { i32, i32, ptr }

@.str.3 = private unnamed_addr constant [2 x i8] c"\0A\00", align 1
@.str.4 = private unnamed_addr constant [69 x i8] c"Total number of objects = %d.  Objects with non-trivial delay = %d.\0A\00", align 1
@.str.5 = private unnamed_addr constant [51 x i8] c"The following %d objects have non-trivial delays:\0A\00", align 1
@.str.6 = private unnamed_addr constant [38 x i8] c"Printing %d objects of network \22%s\22:\0A\00", align 1

; Function Attrs: inlinehint nounwind uwtable
define internal i32 @Vec_IntEntry(ptr noundef %0, i32 noundef %1) #2 {
  %3 = alloca ptr, align 8
  %4 = alloca i32, align 4
  store ptr %0, ptr %3, align 8, !tbaa !29
  store i32 %1, ptr %4, align 4, !tbaa !8
  %5 = load ptr, ptr %3, align 8, !tbaa !29
  %6 = getelementptr inbounds nuw %struct.Vec_Int_t_, ptr %5, i32 0, i32 2
  %7 = load ptr, ptr %6, align 8, !tbaa !31
  %8 = load i32, ptr %4, align 4, !tbaa !8
  %9 = sext i32 %8 to i64
  %10 = getelementptr inbounds i32, ptr %7, i64 %9
  %11 = load i32, ptr %10, align 4, !tbaa !8
  ret i32 %11
}

; Function Attrs: inlinehint nounwind uwtable
define internal i32 @Vec_IntSize(ptr noundef %0) #2 {
  %2 = alloca ptr, align 8
  store ptr %0, ptr %2, align 8, !tbaa !29
  %3 = load ptr, ptr %2, align 8, !tbaa !29
  %4 = getelementptr inbounds nuw %struct.Vec_Int_t_, ptr %3, i32 0, i32 1
  %5 = load i32, ptr %4, align 4, !tbaa !44
  ret i32 %5
}

; Function Attrs: inlinehint nounwind uwtable
define internal i32 @Wln_ObjInstId(ptr noundef %0, i32 noundef %1) #2 {
  %3 = alloca ptr, align 8
  %4 = alloca i32, align 4
  store ptr %0, ptr %3, align 8, !tbaa !18
  store i32 %1, ptr %4, align 4, !tbaa !8
  %5 = load ptr, ptr %3, align 8, !tbaa !18
  %6 = getelementptr inbounds nuw %struct.Wln_Ntk_t_, ptr %5, i32 0, i32 11
  %7 = load i32, ptr %4, align 4, !tbaa !8
  %8 = call i32 @Vec_IntEntry(ptr noundef %6, i32 noundef %7)
  ret i32 %8
}

; Function Attrs: inlinehint nounwind uwtable
define internal i32 @Wln_NtkObjNum(ptr noundef %0) #2 {
  %2 = alloca ptr, align 8
  store ptr %0, ptr %2, align 8, !tbaa !18
  %3 = load ptr, ptr %2, align 8, !tbaa !18
  %4 = getelementptr inbounds nuw %struct.Wln_Ntk_t_, ptr %3, i32 0, i32 6
  %5 = call i32 @Vec_IntSize(ptr noundef %4)
  ret i32 %5
}

; Function Attrs: nounwind uwtable
define void @Wln_RetPrint(ptr noundef %0, i32 noundef %1) #0 {
  %3 = alloca ptr, align 8
  %4 = alloca i32, align 4
  %5 = alloca i32, align 4
  %6 = alloca i32, align 4
  %7 = alloca i32, align 4
  %8 = alloca i32, align 4
  %9 = alloca i32, align 4
  store ptr %0, ptr %3, align 8, !tbaa !3
  store i32 %1, ptr %4, align 4, !tbaa !8
  call void @llvm.lifetime.start.p0(i64 4, ptr %5) #11
  call void @llvm.lifetime.start.p0(i64 4, ptr %6) #11
  store i32 0, ptr %6, align 4, !tbaa !8
  store i32 1, ptr %5, align 4, !tbaa !8
  br label %10

10:                                               ; preds = %28, %2
  %11 = load i32, ptr %5, align 4, !tbaa !8
  %12 = load ptr, ptr %3, align 8, !tbaa !3
  %13 = getelementptr inbounds nuw %struct.Wln_Ret_t_, ptr %12, i32 0, i32 0
  %14 = load ptr, ptr %13, align 8, !tbaa !10
  %15 = call i32 @Wln_NtkObjNum(ptr noundef %14)
  %16 = icmp slt i32 %11, %15
  br i1 %16, label %17, label %31

17:                                               ; preds = %10
  %18 = load ptr, ptr %3, align 8, !tbaa !3
  %19 = getelementptr inbounds nuw %struct.Wln_Ret_t_, ptr %18, i32 0, i32 0
  %20 = load ptr, ptr %19, align 8, !tbaa !10
  %21 = load i32, ptr %5, align 4, !tbaa !8
  %22 = call i32 @Wln_ObjInstId(ptr noundef %20, i32 noundef %21)
  %23 = icmp sgt i32 %22, 1
  br i1 %23, label %24, label %27

24:                                               ; preds = %17
  %25 = load i32, ptr %6, align 4, !tbaa !8
  %26 = add nsw i32 %25, 1
  store i32 %26, ptr %6, align 4, !tbaa !8
  br label %27

27:                                               ; preds = %24, %17
  br label %28

28:                                               ; preds = %27
  %29 = load i32, ptr %5, align 4, !tbaa !8
  %30 = add nsw i32 %29, 1
  store i32 %30, ptr %5, align 4, !tbaa !8
  br label %10, !llvm.loop !32

31:                                               ; preds = %10
  %32 = load ptr, ptr %3, align 8, !tbaa !3
  %33 = getelementptr inbounds nuw %struct.Wln_Ret_t_, ptr %32, i32 0, i32 0
  %34 = load ptr, ptr %33, align 8, !tbaa !10
  %35 = call i32 @Wln_NtkObjNum(ptr noundef %34)
  %36 = load i32, ptr %6, align 4, !tbaa !8
  %37 = call i32 (ptr, ...) @printf(ptr noundef @.str.4, i32 noundef %35, i32 noundef %36)
  %38 = load i32, ptr %4, align 4, !tbaa !8
  %39 = icmp ne i32 %38, 0
  br i1 %39, label %71, label %40

40:                                               ; preds = %31
  call void @llvm.lifetime.start.p0(i64 4, ptr %7) #11
  store i32 0, ptr %7, align 4, !tbaa !8
  call void @llvm.lifetime.start.p0(i64 4, ptr %8) #11
  store i32 5, ptr %8, align 4, !tbaa !8
  %41 = load i32, ptr %8, align 4, !tbaa !8
  %42 = call i32 (ptr, ...) @printf(ptr noundef @.str.5, i32 noundef %41)
  store i32 1, ptr %5, align 4, !tbaa !8
  br label %43

43:                                               ; preds = %67, %40
  %44 = load i32, ptr %5, align 4, !tbaa !8
  %45 = load ptr, ptr %3, align 8, !tbaa !3
  %46 = getelementptr inbounds nuw %struct.Wln_Ret_t_, ptr %45, i32 0, i32 0
  %47 = load ptr, ptr %46, align 8, !tbaa !10
  %48 = call i32 @Wln_NtkObjNum(ptr noundef %47)
  %49 = icmp slt i32 %44, %48
  br i1 %49, label %50, label %70

50:                                               ; preds = %43
  %51 = load ptr, ptr %3, align 8, !tbaa !3
  %52 = getelementptr inbounds nuw %struct.Wln_Ret_t_, ptr %51, i32 0, i32 0
  %53 = load ptr, ptr %52, align 8, !tbaa !10
  %54 = load i32, ptr %5, align 4, !tbaa !8
  %55 = call i32 @Wln_ObjInstId(ptr noundef %53, i32 noundef %54)
  %56 = icmp sle i32 %55, 1
  br i1 %56, label %57, label %58

57:                                               ; preds = %50
  br label %67

58:                                               ; preds = %50
  %59 = load ptr, ptr %3, align 8, !tbaa !3
  %60 = load i32, ptr %5, align 4, !tbaa !8
  call void @Wln_RetPrintObj(ptr noundef %59, i32 noundef %60)
  %61 = load i32, ptr %7, align 4, !tbaa !8
  %62 = add nsw i32 %61, 1
  store i32 %62, ptr %7, align 4, !tbaa !8
  %63 = load i32, ptr %8, align 4, !tbaa !8
  %64 = icmp eq i32 %62, %63
  br i1 %64, label %65, label %66

65:                                               ; preds = %58
  br label %70

66:                                               ; preds = %58
  br label %67

67:                                               ; preds = %66, %57
  %68 = load i32, ptr %5, align 4, !tbaa !8
  %69 = add nsw i32 %68, 1
  store i32 %69, ptr %5, align 4, !tbaa !8
  br label %43, !llvm.loop !33

70:                                               ; preds = %65, %43
  store i32 1, ptr %9, align 4
  call void @llvm.lifetime.end.p0(i64 4, ptr %8) #11
  call void @llvm.lifetime.end.p0(i64 4, ptr %7) #11
  br label %97

71:                                               ; preds = %31
  %72 = load ptr, ptr %3, align 8, !tbaa !3
  %73 = getelementptr inbounds nuw %struct.Wln_Ret_t_, ptr %72, i32 0, i32 0
  %74 = load ptr, ptr %73, align 8, !tbaa !10
  %75 = call i32 @Wln_NtkObjNum(ptr noundef %74)
  %76 = load ptr, ptr %3, align 8, !tbaa !3
  %77 = getelementptr inbounds nuw %struct.Wln_Ret_t_, ptr %76, i32 0, i32 0
  %78 = load ptr, ptr %77, align 8, !tbaa !10
  %79 = getelementptr inbounds nuw %struct.Wln_Ntk_t_, ptr %78, i32 0, i32 0
  %80 = load ptr, ptr %79, align 8, !tbaa !34
  %81 = call i32 (ptr, ...) @printf(ptr noundef @.str.6, i32 noundef %75, ptr noundef %80)
  store i32 1, ptr %5, align 4, !tbaa !8
  br label %82

82:                                               ; preds = %92, %71
  %83 = load i32, ptr %5, align 4, !tbaa !8
  %84 = load ptr, ptr %3, align 8, !tbaa !3
  %85 = getelementptr inbounds nuw %struct.Wln_Ret_t_, ptr %84, i32 0, i32 0
  %86 = load ptr, ptr %85, align 8, !tbaa !10
  %87 = call i32 @Wln_NtkObjNum(ptr noundef %86)
  %88 = icmp slt i32 %83, %87
  br i1 %88, label %89, label %95

89:                                               ; preds = %82
  %90 = load ptr, ptr %3, align 8, !tbaa !3
  %91 = load i32, ptr %5, align 4, !tbaa !8
  call void @Wln_RetPrintObj(ptr noundef %90, i32 noundef %91)
  br label %92

92:                                               ; preds = %89
  %93 = load i32, ptr %5, align 4, !tbaa !8
  %94 = add nsw i32 %93, 1
  store i32 %94, ptr %5, align 4, !tbaa !8
  br label %82, !llvm.loop !35

95:                                               ; preds = %82
  %96 = call i32 (ptr, ...) @printf(ptr noundef @.str.3)
  store i32 0, ptr %9, align 4
  br label %97

97:                                               ; preds = %95, %70
  call void @llvm.lifetime.end.p0(i64 4, ptr %6) #11
  call void @llvm.lifetime.end.p0(i64 4, ptr %5) #11
  %98 = load i32, ptr %9, align 4
  switch i32 %98, label %100 [
    i32 0, label %99
    i32 1, label %99
  ]

99:                                               ; preds = %97, %97
  ret void

100:                                              ; preds = %97
  unreachable
}