; Function Attrs: nofree nounwind uwtable
define void @Wln_RetPrint(ptr noundef readonly captures(none) %0, i32 noundef %1) local_unnamed_addr #0 {
  %3 = load ptr, ptr %0, align 8, !tbaa !3
  %4 = getelementptr i8, ptr %3, i64 76
  %.val31 = load i32, ptr %4, align 4, !tbaa !26
  %5 = icmp sgt i32 %.val31, 1
  br i1 %5, label %.lr.ph, label %._crit_edge

.lr.ph:                                           ; preds = %2
  %6 = getelementptr i8, ptr %3, i64 144
  %.val30 = load ptr, ptr %6, align 8, !tbaa !12
  %wide.trip.count = zext nneg i32 %.val31 to i64
  br label %7

7:                                                ; preds = %.lr.ph, %7
  %indvars.iv = phi i64 [ 1, %.lr.ph ], [ %indvars.iv.next, %7 ]
  %.02736 = phi i32 [ 0, %.lr.ph ], [ %spec.select, %7 ]
  %8 = getelementptr inbounds nuw i32, ptr %.val30, i64 %indvars.iv
  %9 = load i32, ptr %8, align 4, !tbaa !13
  %10 = icmp sgt i32 %9, 1
  %11 = zext i1 %10 to i32
  %spec.select = add nuw nsw i32 %.02736, %11
  %indvars.iv.next = add nuw nsw i64 %indvars.iv, 1
  %exitcond.not = icmp eq i64 %indvars.iv.next, %wide.trip.count
  br i1 %exitcond.not, label %._crit_edge, label %7, !llvm.loop !27

._crit_edge:                                      ; preds = %7, %2
  %.027.lcssa = phi i32 [ 0, %2 ], [ %spec.select, %7 ]
  %12 = tail call i32 (ptr, ...) @printf(ptr noundef nonnull dereferenceable(1) @.str.4, i32 noundef %.val31, i32 noundef %.027.lcssa)
  %.not = icmp eq i32 %1, 0
  br i1 %.not, label %13, label %32

13:                                               ; preds = %._crit_edge
  %14 = tail call i32 (ptr, ...) @printf(ptr noundef nonnull dereferenceable(1) @.str.5, i32 noundef 5)
  %15 = load ptr, ptr %0, align 8, !tbaa !3
  %16 = getelementptr i8, ptr %15, i64 76
  %.val3344 = load i32, ptr %16, align 4, !tbaa !26
  %17 = icmp sgt i32 %.val3344, 1
  br i1 %17, label %.lr.ph48, label %.loopexit

.lr.ph48:                                         ; preds = %13, %27
  %18 = phi ptr [ %28, %27 ], [ %15, %13 ]
  %indvars.iv51 = phi i64 [ %indvars.iv.next52, %27 ], [ 1, %13 ]
  %.02545 = phi i32 [ %.126, %27 ], [ 0, %13 ]
  %19 = getelementptr i8, ptr %18, i64 144
  %.val = load ptr, ptr %19, align 8, !tbaa !12
  %20 = getelementptr inbounds nuw i32, ptr %.val, i64 %indvars.iv51
  %21 = load i32, ptr %20, align 4, !tbaa !13
  %22 = icmp slt i32 %21, 2
  br i1 %22, label %27, label %23

23:                                               ; preds = %.lr.ph48
  %24 = trunc nuw nsw i64 %indvars.iv51 to i32
  tail call void @Wln_RetPrintObj(ptr noundef nonnull %0, i32 noundef %24)
  %25 = add nsw i32 %.02545, 1
  %26 = icmp eq i32 %25, 5
  br i1 %26, label %.loopexit, label %._crit_edge54

._crit_edge54:                                    ; preds = %23
  %.pre = load ptr, ptr %0, align 8, !tbaa !3
  br label %27

27:                                               ; preds = %._crit_edge54, %.lr.ph48
  %28 = phi ptr [ %18, %.lr.ph48 ], [ %.pre, %._crit_edge54 ]
  %.126 = phi i32 [ %.02545, %.lr.ph48 ], [ %25, %._crit_edge54 ]
  %indvars.iv.next52 = add nuw nsw i64 %indvars.iv51, 1
  %29 = getelementptr i8, ptr %28, i64 76
  %.val33 = load i32, ptr %29, align 4, !tbaa !26
  %30 = sext i32 %.val33 to i64
  %31 = icmp slt i64 %indvars.iv.next52, %30
  br i1 %31, label %.lr.ph48, label %.loopexit, !llvm.loop !28

32:                                               ; preds = %._crit_edge
  %33 = load ptr, ptr %0, align 8, !tbaa !3
  %34 = getelementptr i8, ptr %33, i64 76
  %.val34 = load i32, ptr %34, align 4, !tbaa !26
  %35 = load ptr, ptr %33, align 8, !tbaa !29
  %36 = tail call i32 (ptr, ...) @printf(ptr noundef nonnull dereferenceable(1) @.str.6, i32 noundef %.val34, ptr noundef %35)
  %37 = load ptr, ptr %0, align 8, !tbaa !3
  %38 = getelementptr i8, ptr %37, i64 76
  %.val3539 = load i32, ptr %38, align 4, !tbaa !26
  %39 = icmp sgt i32 %.val3539, 1
  br i1 %39, label %.lr.ph42, label %._crit_edge43

.lr.ph42:                                         ; preds = %32, %.lr.ph42
  %.240 = phi i32 [ %40, %.lr.ph42 ], [ 1, %32 ]
  tail call void @Wln_RetPrintObj(ptr noundef nonnull %0, i32 noundef %.240)
  %40 = add nuw nsw i32 %.240, 1
  %41 = load ptr, ptr %0, align 8, !tbaa !3
  %42 = getelementptr i8, ptr %41, i64 76
  %.val35 = load i32, ptr %42, align 4, !tbaa !26
  %43 = icmp slt i32 %40, %.val35
  br i1 %43, label %.lr.ph42, label %._crit_edge43, !llvm.loop !30

._crit_edge43:                                    ; preds = %.lr.ph42, %32
  %putchar = tail call i32 @putchar(i32 10)
  br label %.loopexit

.loopexit:                                        ; preds = %23, %27, %13, %._crit_edge43
  ret void
}